; Function Attrs: mustprogress uwtable
define hidden noundef zeroext i1 @_ZN4cvc58internal6theory7strings5utils19isUnboundedWildcardERKSt6vectorINS0_12NodeTemplateILb1EEESaIS6_EEm(ptr noundef nonnull readonly align 8 captures(none) dereferenceable(24) %0, i64 noundef %1) local_unnamed_addr #4 personality ptr @__gxx_personality_v0 {
  %3 = getelementptr inbounds nuw i8, ptr %0, i64 8
  %4 = load ptr, ptr %3, align 8, !tbaa !17
  %5 = load ptr, ptr %0, align 8, !tbaa !26
  %6 = ptrtoint ptr %4 to i64
  %7 = ptrtoint ptr %5 to i64
  %8 = sub i64 %6, %7
  %9 = ashr exact i64 %8, 3
  %10 = icmp ult i64 %1, %9
  br i1 %10, label %.lr.ph, label %.critedge18

.lr.ph:                                           ; preds = %2, %17
  %.01524 = phi i64 [ %18, %17 ], [ %1, %2 ]
  %11 = getelementptr inbounds nuw %"class.cvc5::internal::NodeTemplate", ptr %5, i64 %.01524
  %12 = load ptr, ptr %11, align 8, !tbaa !8
  %13 = getelementptr inbounds nuw i8, ptr %12, i64 8
  %14 = load i64, ptr %13, align 8
  %15 = and i64 %14, 1023
  %16 = icmp eq i64 %15, 358
  br i1 %16, label %17, label %19

17:                                               ; preds = %.lr.ph
  %18 = add i64 %.01524, 1
  %exitcond.not = icmp eq i64 %18, %9
  br i1 %exitcond.not, label %.critedge18, label %.lr.ph, !llvm.loop !214

19:                                               ; preds = %.lr.ph
  %20 = and i64 %14, 1023
  %21 = icmp eq i64 %20, 351
  br i1 %21, label %22, label %.critedge18

22:                                               ; preds = %19
  %23 = tail call noundef i32 @_ZN4cvc58internal4kind10metaKindOfENS1_6Kind_tE(i32 noundef 351), !noalias !215
  %24 = icmp eq i32 %23, 2
  %25 = getelementptr inbounds nuw i8, ptr %12, i64 24
  %26 = zext i1 %24 to i64
  %27 = getelementptr inbounds nuw [0 x ptr], ptr %25, i64 0, i64 %26
  %28 = load ptr, ptr %27, align 8, !tbaa !39, !noalias !215
  %29 = load i64, ptr %28, align 8, !noalias !215
  %30 = lshr i64 %29, 40
  %31 = trunc nuw nsw i64 %30 to i32
  %32 = and i32 %31, 1048575
  %33 = icmp samesign ult i32 %32, 1048574
  br i1 %33, label %34, label %39, !prof !15

34:                                               ; preds = %22
  %35 = add i64 %29, 1099511627776
  %36 = and i64 %35, 1152920405095219200
  %37 = and i64 %29, -1152920405095219201
  %38 = or disjoint i64 %36, %37
  store i64 %38, ptr %28, align 8, !noalias !215
  br label %43

39:                                               ; preds = %22
  %40 = icmp eq i32 %32, 1048574
  br i1 %40, label %41, label %43, !prof !16

41:                                               ; preds = %39
  %42 = or i64 %29, 1152920405095219200
  store i64 %42, ptr %28, align 8, !noalias !215
  tail call void @_ZN4cvc58internal4expr9NodeValue20markRefCountMaxedOutEv(ptr noundef nonnull align 8 dereferenceable(24) %28), !noalias !215
  %.pre = load i64, ptr %28, align 8
  br label %43

43:                                               ; preds = %41, %39, %34
  %44 = phi i64 [ %.pre, %41 ], [ %29, %39 ], [ %38, %34 ]
  %45 = getelementptr inbounds nuw i8, ptr %28, i64 8
  %46 = load i64, ptr %45, align 8
  %47 = and i64 %46, 1023
  %48 = icmp eq i64 %47, 358
  %49 = and i64 %44, 1152920405095219200
  %.not.i.i = icmp eq i64 %49, 1152920405095219200
  br i1 %.not.i.i, label %.critedge18, label %50, !prof !16

50:                                               ; preds = %43
  %51 = add i64 %44, 1152920405095219200
  %52 = and i64 %51, 1152920405095219200
  %53 = and i64 %44, -1152920405095219201
  %54 = or disjoint i64 %52, %53
  store i64 %54, ptr %28, align 8
  %55 = icmp eq i64 %52, 0
  br i1 %55, label %56, label %.critedge18, !prof !16

56:                                               ; preds = %50
  invoke void @_ZN4cvc58internal4expr9NodeValue15markForDeletionEv(ptr noundef nonnull align 8 dereferenceable(24) %28)
          to label %.critedge18 unwind label %57

57:                                               ; preds = %56
  %58 = landingpad { ptr, i32 }
          catch ptr null
  %59 = extractvalue { ptr, i32 } %58, 0
  tail call void @__clang_call_terminate(ptr %59) #24
  unreachable

.critedge18:                                      ; preds = %17, %2, %56, %50, %43, %19
  %.016 = phi i1 [ false, %19 ], [ %48, %43 ], [ %48, %50 ], [ %48, %56 ], [ false, %2 ], [ false, %17 ]
  ret i1 %.016
}